(dp0
S'cluster10'
p1
(dp2
S'd100'
p3
(dp4
S'node'
p5
S'j'
p6
sS'ip'
p7
S'19.0.0.20'
p8
sS'rate'
p9
S'c1'
p10
ssS'd98'
p11
(dp12
g5
S'h'
p13
sg7
S'19.0.0.18'
p14
sg9
S'c3'
p15
ssS'd99'
p16
(dp17
g5
S'i'
p18
sg7
S'19.0.0.19'
p19
sg9
g10
ssS'd94'
p20
(dp21
g5
S'd'
p22
sg7
S'19.0.0.14'
p23
sg9
g10
ssS'd95'
p24
(dp25
g5
S'e'
p26
sg7
S'19.0.0.15'
p27
sg9
g10
ssS'd96'
p28
(dp29
g5
S'f'
p30
sg7
S'19.0.0.16'
p31
sg9
g10
ssS'd97'
p32
(dp33
g5
S'g'
p34
sg7
S'19.0.0.17'
p35
sg9
g15
ssS'd91'
p36
(dp37
g5
S'a'
p38
sg7
S'19.0.0.11'
p39
sg9
S'c2'
p40
ssS'd92'
p41
(dp42
g5
S'b'
p43
sg7
S'19.0.0.12'
p44
sg9
g40
ssS'd93'
p45
(dp46
g5
S'c'
p47
sg7
S'19.0.0.13'
p48
sg9
g10
sssS'cluster8'
p49
(dp50
S'd72'
p51
(dp52
g5
g43
sg7
S'17.0.0.12'
p53
sg9
g40
ssS'd73'
p54
(dp55
g5
g47
sg7
S'17.0.0.13'
p56
sg9
g10
ssS'd71'
p57
(dp58
g5
g38
sg7
S'17.0.0.11'
p59
sg9
g40
ssS'd76'
p60
(dp61
g5
g30
sg7
S'17.0.0.16'
p62
sg9
g10
ssS'd77'
p63
(dp64
g5
g34
sg7
S'17.0.0.17'
p65
sg9
g15
ssS'd74'
p66
(dp67
g5
g22
sg7
S'17.0.0.14'
p68
sg9
g10
ssS'd75'
p69
(dp70
g5
g26
sg7
S'17.0.0.15'
p71
sg9
g10
ssS'd78'
p72
(dp73
g5
g13
sg7
S'17.0.0.18'
p74
sg9
g15
ssS'd79'
p75
(dp76
g5
g18
sg7
S'17.0.0.19'
p77
sg9
g10
ssS'd80'
p78
(dp79
g5
g6
sg7
S'17.0.0.20'
p80
sg9
g10
sssS'cluster9'
p81
(dp82
S'd89'
p83
(dp84
g5
g18
sg7
S'18.0.0.19'
p85
sg9
g10
ssS'd88'
p86
(dp87
g5
g13
sg7
S'18.0.0.18'
p88
sg9
g15
ssS'd87'
p89
(dp90
g5
g34
sg7
S'18.0.0.17'
p91
sg9
g15
ssS'd86'
p92
(dp93
g5
g30
sg7
S'18.0.0.16'
p94
sg9
g10
ssS'd85'
p95
(dp96
g5
g26
sg7
S'18.0.0.15'
p97
sg9
g10
ssS'd84'
p98
(dp99
g5
g22
sg7
S'18.0.0.14'
p100
sg9
g10
ssS'd83'
p101
(dp102
g5
g47
sg7
S'18.0.0.13'
p103
sg9
g10
ssS'd82'
p104
(dp105
g5
g43
sg7
S'18.0.0.12'
p106
sg9
g40
ssS'd81'
p107
(dp108
g5
g38
sg7
S'18.0.0.11'
p109
sg9
g40
ssS'd90'
p110
(dp111
g5
g6
sg7
S'18.0.0.20'
p112
sg9
g10
sssS'cluster2'
p113
(dp114
S'd14'
p115
(dp116
g5
g22
sg7
S'11.0.0.14'
p117
sg9
g10
ssS'd15'
p118
(dp119
g5
g26
sg7
S'11.0.0.15'
p120
sg9
g10
ssS'd16'
p121
(dp122
g5
g30
sg7
S'11.0.0.16'
p123
sg9
g10
ssS'd17'
p124
(dp125
g5
g34
sg7
S'11.0.0.17'
p126
sg9
g15
ssS'd11'
p127
(dp128
g5
g38
sg7
S'11.0.0.11'
p129
sg9
g40
ssS'd12'
p130
(dp131
g5
g43
sg7
S'11.0.0.12'
p132
sg9
g40
ssS'd13'
p133
(dp134
g5
g47
sg7
S'11.0.0.13'
p135
sg9
g10
ssS'd20'
p136
(dp137
g5
g6
sg7
S'11.0.0.20'
p138
sg9
g10
ssS'd18'
p139
(dp140
g5
g13
sg7
S'11.0.0.18'
p141
sg9
g15
ssS'd19'
p142
(dp143
g5
g18
sg7
S'11.0.0.19'
p144
sg9
g10
sssS'cluster3'
p145
(dp146
S'd29'
p147
(dp148
g5
g18
sg7
S'12.0.0.19'
p149
sg9
g10
ssS'd28'
p150
(dp151
g5
g13
sg7
S'12.0.0.18'
p152
sg9
g15
ssS'd21'
p153
(dp154
g5
g38
sg7
S'12.0.0.11'
p155
sg9
g40
ssS'd23'
p156
(dp157
g5
g47
sg7
S'12.0.0.13'
p158
sg9
g10
ssS'd22'
p159
(dp160
g5
g43
sg7
S'12.0.0.12'
p161
sg9
g40
ssS'd25'
p162
(dp163
g5
g26
sg7
S'12.0.0.15'
p164
sg9
g10
ssS'd24'
p165
(dp166
g5
g22
sg7
S'12.0.0.14'
p167
sg9
g10
ssS'd27'
p168
(dp169
g5
g34
sg7
S'12.0.0.17'
p170
sg9
g15
ssS'd26'
p171
(dp172
g5
g30
sg7
S'12.0.0.16'
p173
sg9
g10
ssS'd30'
p174
(dp175
g5
g6
sg7
S'12.0.0.20'
p176
sg9
g10
sssS'cluster1'
p177
(dp178
S'd10'
p179
(dp180
g5
g6
sg7
S'10.0.0.20'
p181
sg9
g10
ssS'd8'
p182
(dp183
g5
g13
sg7
S'10.0.0.18'
p184
sg9
g15
ssS'd9'
p185
(dp186
g5
g18
sg7
S'10.0.0.19'
p187
sg9
g10
ssS'd6'
p188
(dp189
g5
g30
sg7
S'10.0.0.16'
p190
sg9
g10
ssS'd7'
p191
(dp192
g5
g34
sg7
S'10.0.0.17'
p193
sg9
g15
ssS'd4'
p194
(dp195
g5
g22
sg7
S'10.0.0.14'
p196
sg9
g10
ssS'd5'
p197
(dp198
g5
g26
sg7
S'10.0.0.15'
p199
sg9
g10
ssS'd2'
p200
(dp201
g5
g43
sg7
S'10.0.0.12'
p202
sg9
g40
ssS'd3'
p203
(dp204
g5
g47
sg7
S'10.0.0.13'
p205
sg9
g10
ssS'd1'
p206
(dp207
g5
g38
sg7
S'10.0.0.11'
p208
sg9
g40
sssS'cluster6'
p209
(dp210
S'd60'
p211
(dp212
g5
g6
sg7
S'15.0.0.20'
p213
sg9
g10
ssS'd58'
p214
(dp215
g5
g13
sg7
S'15.0.0.18'
p216
sg9
g15
ssS'd59'
p217
(dp218
g5
g18
sg7
S'15.0.0.19'
p219
sg9
g10
ssS'd51'
p220
(dp221
g5
g38
sg7
S'15.0.0.11'
p222
sg9
g40
ssS'd52'
p223
(dp224
g5
g43
sg7
S'15.0.0.12'
p225
sg9
g40
ssS'd53'
p226
(dp227
g5
g47
sg7
S'15.0.0.13'
p228
sg9
g10
ssS'd54'
p229
(dp230
g5
g22
sg7
S'15.0.0.14'
p231
sg9
g10
ssS'd55'
p232
(dp233
g5
g26
sg7
S'15.0.0.15'
p234
sg9
g10
ssS'd56'
p235
(dp236
g5
g30
sg7
S'15.0.0.16'
p237
sg9
g10
ssS'd57'
p238
(dp239
g5
g34
sg7
S'15.0.0.17'
p240
sg9
g15
sssS'cluster7'
p241
(dp242
S'd70'
p243
(dp244
g5
g6
sg7
S'16.0.0.20'
p245
sg9
g10
ssS'd69'
p246
(dp247
g5
g18
sg7
S'16.0.0.19'
p248
sg9
g10
ssS'd68'
p249
(dp250
g5
g13
sg7
S'16.0.0.18'
p251
sg9
g15
ssS'd65'
p252
(dp253
g5
g26
sg7
S'16.0.0.15'
p254
sg9
g10
ssS'd64'
p255
(dp256
g5
g22
sg7
S'16.0.0.14'
p257
sg9
g10
ssS'd67'
p258
(dp259
g5
g34
sg7
S'16.0.0.17'
p260
sg9
g15
ssS'd66'
p261
(dp262
g5
g30
sg7
S'16.0.0.16'
p263
sg9
g10
ssS'd61'
p264
(dp265
g5
g38
sg7
S'16.0.0.11'
p266
sg9
g40
ssS'd63'
p267
(dp268
g5
g47
sg7
S'16.0.0.13'
p269
sg9
g10
ssS'd62'
p270
(dp271
g5
g43
sg7
S'16.0.0.12'
p272
sg9
g40
sssS'cluster4'
p273
(dp274
S'd38'
p275
(dp276
g5
g13
sg7
S'13.0.0.18'
p277
sg9
g15
ssS'd39'
p278
(dp279
g5
g18
sg7
S'13.0.0.19'
p280
sg9
g10
ssS'd36'
p281
(dp282
g5
g30
sg7
S'13.0.0.16'
p283
sg9
g10
ssS'd37'
p284
(dp285
g5
g34
sg7
S'13.0.0.17'
p286
sg9
g15
ssS'd34'
p287
(dp288
g5
g22
sg7
S'13.0.0.14'
p289
sg9
g10
ssS'd35'
p290
(dp291
g5
g26
sg7
S'13.0.0.15'
p292
sg9
g10
ssS'd32'
p293
(dp294
g5
g43
sg7
S'13.0.0.12'
p295
sg9
g40
ssS'd33'
p296
(dp297
g5
g47
sg7
S'13.0.0.13'
p298
sg9
g10
ssS'd31'
p299
(dp300
g5
g38
sg7
S'13.0.0.11'
p301
sg9
g40
ssS'd40'
p302
(dp303
g5
g6
sg7
S'13.0.0.20'
p304
sg9
g10
sssS'cluster5'
p305
(dp306
S'd50'
p307
(dp308
g5
g6
sg7
S'14.0.0.20'
p309
sg9
g10
ssS'd49'
p310
(dp311
g5
g18
sg7
S'14.0.0.19'
p312
sg9
g10
ssS'd48'
p313
(dp314
g5
g13
sg7
S'14.0.0.18'
p315
sg9
g15
ssS'd43'
p316
(dp317
g5
g47
sg7
S'14.0.0.13'
p318
sg9
g10
ssS'd42'
p319
(dp320
g5
g43
sg7
S'14.0.0.12'
p321
sg9
g40
ssS'd41'
p322
(dp323
g5
g38
sg7
S'14.0.0.11'
p324
sg9
g40
ssS'd47'
p325
(dp326
g5
g34
sg7
S'14.0.0.17'
p327
sg9
g15
ssS'd46'
p328
(dp329
g5
g30
sg7
S'14.0.0.16'
p330
sg9
g10
ssS'd45'
p331
(dp332
g5
g26
sg7
S'14.0.0.15'
p333
sg9
g10
ssS'd44'
p334
(dp335
g5
g22
sg7
S'14.0.0.14'
p336
sg9
g10
sss.