(dp0
S'cluster10'
p1
(dp2
S'd100'
p3
(dp4
S'node'
p5
S'j'
p6
sS'ip'
p7
S'19.0.0.20'
p8
sS'rate'
p9
S'c2'
p10
ssS'd98'
p11
(dp12
g5
S'h'
p13
sg7
S'19.0.0.18'
p14
sg9
S'c1'
p15
ssS'd99'
p16
(dp17
g5
S'i'
p18
sg7
S'19.0.0.19'
p19
sg9
g10
ssS'd94'
p20
(dp21
g5
S'd'
p22
sg7
S'19.0.0.14'
p23
sg9
g15
ssS'd95'
p24
(dp25
g5
S'e'
p26
sg7
S'19.0.0.15'
p27
sg9
g15
ssS'd96'
p28
(dp29
g5
S'f'
p30
sg7
S'19.0.0.16'
p31
sg9
g15
ssS'd97'
p32
(dp33
g5
S'g'
p34
sg7
S'19.0.0.17'
p35
sg9
g15
ssS'd91'
p36
(dp37
g5
S'a'
p38
sg7
S'19.0.0.11'
p39
sg9
g10
ssS'd92'
p40
(dp41
g5
S'b'
p42
sg7
S'19.0.0.12'
p43
sg9
g10
ssS'd93'
p44
(dp45
g5
S'c'
p46
sg7
S'19.0.0.13'
p47
sg9
g15
sssS'cluster8'
p48
(dp49
S'd72'
p50
(dp51
g5
g42
sg7
S'17.0.0.12'
p52
sg9
g10
ssS'd73'
p53
(dp54
g5
g46
sg7
S'17.0.0.13'
p55
sg9
g15
ssS'd71'
p56
(dp57
g5
g38
sg7
S'17.0.0.11'
p58
sg9
g10
ssS'd76'
p59
(dp60
g5
g30
sg7
S'17.0.0.16'
p61
sg9
g15
ssS'd77'
p62
(dp63
g5
g34
sg7
S'17.0.0.17'
p64
sg9
g15
ssS'd74'
p65
(dp66
g5
g22
sg7
S'17.0.0.14'
p67
sg9
g15
ssS'd75'
p68
(dp69
g5
g26
sg7
S'17.0.0.15'
p70
sg9
g15
ssS'd78'
p71
(dp72
g5
g13
sg7
S'17.0.0.18'
p73
sg9
g15
ssS'd79'
p74
(dp75
g5
g18
sg7
S'17.0.0.19'
p76
sg9
g10
ssS'd80'
p77
(dp78
g5
g6
sg7
S'17.0.0.20'
p79
sg9
g10
sssS'cluster9'
p80
(dp81
S'd89'
p82
(dp83
g5
g18
sg7
S'18.0.0.19'
p84
sg9
g10
ssS'd88'
p85
(dp86
g5
g13
sg7
S'18.0.0.18'
p87
sg9
g15
ssS'd87'
p88
(dp89
g5
g34
sg7
S'18.0.0.17'
p90
sg9
g15
ssS'd86'
p91
(dp92
g5
g30
sg7
S'18.0.0.16'
p93
sg9
g15
ssS'd85'
p94
(dp95
g5
g26
sg7
S'18.0.0.15'
p96
sg9
g15
ssS'd84'
p97
(dp98
g5
g22
sg7
S'18.0.0.14'
p99
sg9
g15
ssS'd83'
p100
(dp101
g5
g46
sg7
S'18.0.0.13'
p102
sg9
g15
ssS'd82'
p103
(dp104
g5
g42
sg7
S'18.0.0.12'
p105
sg9
g10
ssS'd81'
p106
(dp107
g5
g38
sg7
S'18.0.0.11'
p108
sg9
g10
ssS'd90'
p109
(dp110
g5
g6
sg7
S'18.0.0.20'
p111
sg9
g10
sssS'cluster2'
p112
(dp113
S'd14'
p114
(dp115
g5
g22
sg7
S'11.0.0.14'
p116
sg9
g15
ssS'd15'
p117
(dp118
g5
g26
sg7
S'11.0.0.15'
p119
sg9
g15
ssS'd16'
p120
(dp121
g5
g30
sg7
S'11.0.0.16'
p122
sg9
g15
ssS'd17'
p123
(dp124
g5
g34
sg7
S'11.0.0.17'
p125
sg9
g15
ssS'd11'
p126
(dp127
g5
g38
sg7
S'11.0.0.11'
p128
sg9
g10
ssS'd12'
p129
(dp130
g5
g42
sg7
S'11.0.0.12'
p131
sg9
g10
ssS'd13'
p132
(dp133
g5
g46
sg7
S'11.0.0.13'
p134
sg9
g15
ssS'd20'
p135
(dp136
g5
g6
sg7
S'11.0.0.20'
p137
sg9
g10
ssS'd18'
p138
(dp139
g5
g13
sg7
S'11.0.0.18'
p140
sg9
g15
ssS'd19'
p141
(dp142
g5
g18
sg7
S'11.0.0.19'
p143
sg9
g10
sssS'cluster3'
p144
(dp145
S'd29'
p146
(dp147
g5
g18
sg7
S'12.0.0.19'
p148
sg9
g10
ssS'd28'
p149
(dp150
g5
g13
sg7
S'12.0.0.18'
p151
sg9
g15
ssS'd21'
p152
(dp153
g5
g38
sg7
S'12.0.0.11'
p154
sg9
g10
ssS'd23'
p155
(dp156
g5
g46
sg7
S'12.0.0.13'
p157
sg9
g15
ssS'd22'
p158
(dp159
g5
g42
sg7
S'12.0.0.12'
p160
sg9
g10
ssS'd25'
p161
(dp162
g5
g26
sg7
S'12.0.0.15'
p163
sg9
g15
ssS'd24'
p164
(dp165
g5
g22
sg7
S'12.0.0.14'
p166
sg9
g15
ssS'd27'
p167
(dp168
g5
g34
sg7
S'12.0.0.17'
p169
sg9
g15
ssS'd26'
p170
(dp171
g5
g30
sg7
S'12.0.0.16'
p172
sg9
g15
ssS'd30'
p173
(dp174
g5
g6
sg7
S'12.0.0.20'
p175
sg9
g10
sssS'cluster1'
p176
(dp177
S'd10'
p178
(dp179
g5
g6
sg7
S'10.0.0.20'
p180
sg9
g10
ssS'd8'
p181
(dp182
g5
g13
sg7
S'10.0.0.18'
p183
sg9
g15
ssS'd9'
p184
(dp185
g5
g18
sg7
S'10.0.0.19'
p186
sg9
g10
ssS'd6'
p187
(dp188
g5
g30
sg7
S'10.0.0.16'
p189
sg9
g15
ssS'd7'
p190
(dp191
g5
g34
sg7
S'10.0.0.17'
p192
sg9
g15
ssS'd4'
p193
(dp194
g5
g22
sg7
S'10.0.0.14'
p195
sg9
g15
ssS'd5'
p196
(dp197
g5
g26
sg7
S'10.0.0.15'
p198
sg9
g15
ssS'd2'
p199
(dp200
g5
g42
sg7
S'10.0.0.12'
p201
sg9
g10
ssS'd3'
p202
(dp203
g5
g46
sg7
S'10.0.0.13'
p204
sg9
g15
ssS'd1'
p205
(dp206
g5
g38
sg7
S'10.0.0.11'
p207
sg9
g10
sssS'cluster6'
p208
(dp209
S'd60'
p210
(dp211
g5
g6
sg7
S'15.0.0.20'
p212
sg9
g10
ssS'd58'
p213
(dp214
g5
g13
sg7
S'15.0.0.18'
p215
sg9
g15
ssS'd59'
p216
(dp217
g5
g18
sg7
S'15.0.0.19'
p218
sg9
g10
ssS'd51'
p219
(dp220
g5
g38
sg7
S'15.0.0.11'
p221
sg9
g10
ssS'd52'
p222
(dp223
g5
g42
sg7
S'15.0.0.12'
p224
sg9
g10
ssS'd53'
p225
(dp226
g5
g46
sg7
S'15.0.0.13'
p227
sg9
g15
ssS'd54'
p228
(dp229
g5
g22
sg7
S'15.0.0.14'
p230
sg9
g15
ssS'd55'
p231
(dp232
g5
g26
sg7
S'15.0.0.15'
p233
sg9
g15
ssS'd56'
p234
(dp235
g5
g30
sg7
S'15.0.0.16'
p236
sg9
g15
ssS'd57'
p237
(dp238
g5
g34
sg7
S'15.0.0.17'
p239
sg9
g15
sssS'cluster7'
p240
(dp241
S'd70'
p242
(dp243
g5
g6
sg7
S'16.0.0.20'
p244
sg9
g10
ssS'd69'
p245
(dp246
g5
g18
sg7
S'16.0.0.19'
p247
sg9
g10
ssS'd68'
p248
(dp249
g5
g13
sg7
S'16.0.0.18'
p250
sg9
g15
ssS'd65'
p251
(dp252
g5
g26
sg7
S'16.0.0.15'
p253
sg9
g15
ssS'd64'
p254
(dp255
g5
g22
sg7
S'16.0.0.14'
p256
sg9
g15
ssS'd67'
p257
(dp258
g5
g34
sg7
S'16.0.0.17'
p259
sg9
g15
ssS'd66'
p260
(dp261
g5
g30
sg7
S'16.0.0.16'
p262
sg9
g15
ssS'd61'
p263
(dp264
g5
g38
sg7
S'16.0.0.11'
p265
sg9
g10
ssS'd63'
p266
(dp267
g5
g46
sg7
S'16.0.0.13'
p268
sg9
g15
ssS'd62'
p269
(dp270
g5
g42
sg7
S'16.0.0.12'
p271
sg9
g10
sssS'cluster4'
p272
(dp273
S'd38'
p274
(dp275
g5
g13
sg7
S'13.0.0.18'
p276
sg9
g15
ssS'd39'
p277
(dp278
g5
g18
sg7
S'13.0.0.19'
p279
sg9
g10
ssS'd36'
p280
(dp281
g5
g30
sg7
S'13.0.0.16'
p282
sg9
g15
ssS'd37'
p283
(dp284
g5
g34
sg7
S'13.0.0.17'
p285
sg9
g15
ssS'd34'
p286
(dp287
g5
g22
sg7
S'13.0.0.14'
p288
sg9
g15
ssS'd35'
p289
(dp290
g5
g26
sg7
S'13.0.0.15'
p291
sg9
g15
ssS'd32'
p292
(dp293
g5
g42
sg7
S'13.0.0.12'
p294
sg9
g10
ssS'd33'
p295
(dp296
g5
g46
sg7
S'13.0.0.13'
p297
sg9
g15
ssS'd31'
p298
(dp299
g5
g38
sg7
S'13.0.0.11'
p300
sg9
g10
ssS'd40'
p301
(dp302
g5
g6
sg7
S'13.0.0.20'
p303
sg9
g10
sssS'cluster5'
p304
(dp305
S'd50'
p306
(dp307
g5
g6
sg7
S'14.0.0.20'
p308
sg9
g10
ssS'd49'
p309
(dp310
g5
g18
sg7
S'14.0.0.19'
p311
sg9
g10
ssS'd48'
p312
(dp313
g5
g13
sg7
S'14.0.0.18'
p314
sg9
g15
ssS'd43'
p315
(dp316
g5
g46
sg7
S'14.0.0.13'
p317
sg9
g15
ssS'd42'
p318
(dp319
g5
g42
sg7
S'14.0.0.12'
p320
sg9
g10
ssS'd41'
p321
(dp322
g5
g38
sg7
S'14.0.0.11'
p323
sg9
g10
ssS'd47'
p324
(dp325
g5
g34
sg7
S'14.0.0.17'
p326
sg9
g15
ssS'd46'
p327
(dp328
g5
g30
sg7
S'14.0.0.16'
p329
sg9
g15
ssS'd45'
p330
(dp331
g5
g26
sg7
S'14.0.0.15'
p332
sg9
g15
ssS'd44'
p333
(dp334
g5
g22
sg7
S'14.0.0.14'
p335
sg9
g15
sss.