(dp0
S'cluster10'
p1
(dp2
S'd100'
p3
(dp4
S'node'
p5
S'j'
p6
sS'ip'
p7
S'19.0.0.20'
p8
sS'rate'
p9
S'c1'
p10
ssS'd98'
p11
(dp12
g5
S'h'
p13
sg7
S'19.0.0.18'
p14
sg9
g10
ssS'd99'
p15
(dp16
g5
S'i'
p17
sg7
S'19.0.0.19'
p18
sg9
g10
ssS'd94'
p19
(dp20
g5
S'd'
p21
sg7
S'19.0.0.14'
p22
sg9
g10
ssS'd95'
p23
(dp24
g5
S'e'
p25
sg7
S'19.0.0.15'
p26
sg9
g10
ssS'd96'
p27
(dp28
g5
S'f'
p29
sg7
S'19.0.0.16'
p30
sg9
g10
ssS'd97'
p31
(dp32
g5
S'g'
p33
sg7
S'19.0.0.17'
p34
sg9
g10
ssS'd91'
p35
(dp36
g5
S'a'
p37
sg7
S'19.0.0.11'
p38
sg9
g10
ssS'd92'
p39
(dp40
g5
S'b'
p41
sg7
S'19.0.0.12'
p42
sg9
g10
ssS'd93'
p43
(dp44
g5
S'c'
p45
sg7
S'19.0.0.13'
p46
sg9
g10
sssS'cluster8'
p47
(dp48
S'd72'
p49
(dp50
g5
g41
sg7
S'17.0.0.12'
p51
sg9
g10
ssS'd73'
p52
(dp53
g5
g45
sg7
S'17.0.0.13'
p54
sg9
g10
ssS'd71'
p55
(dp56
g5
g37
sg7
S'17.0.0.11'
p57
sg9
g10
ssS'd76'
p58
(dp59
g5
g29
sg7
S'17.0.0.16'
p60
sg9
g10
ssS'd77'
p61
(dp62
g5
g33
sg7
S'17.0.0.17'
p63
sg9
g10
ssS'd74'
p64
(dp65
g5
g21
sg7
S'17.0.0.14'
p66
sg9
g10
ssS'd75'
p67
(dp68
g5
g25
sg7
S'17.0.0.15'
p69
sg9
g10
ssS'd78'
p70
(dp71
g5
g13
sg7
S'17.0.0.18'
p72
sg9
g10
ssS'd79'
p73
(dp74
g5
g17
sg7
S'17.0.0.19'
p75
sg9
g10
ssS'd80'
p76
(dp77
g5
g6
sg7
S'17.0.0.20'
p78
sg9
g10
sssS'cluster9'
p79
(dp80
S'd89'
p81
(dp82
g5
g17
sg7
S'18.0.0.19'
p83
sg9
g10
ssS'd88'
p84
(dp85
g5
g13
sg7
S'18.0.0.18'
p86
sg9
g10
ssS'd87'
p87
(dp88
g5
g33
sg7
S'18.0.0.17'
p89
sg9
g10
ssS'd86'
p90
(dp91
g5
g29
sg7
S'18.0.0.16'
p92
sg9
g10
ssS'd85'
p93
(dp94
g5
g25
sg7
S'18.0.0.15'
p95
sg9
g10
ssS'd84'
p96
(dp97
g5
g21
sg7
S'18.0.0.14'
p98
sg9
g10
ssS'd83'
p99
(dp100
g5
g45
sg7
S'18.0.0.13'
p101
sg9
g10
ssS'd82'
p102
(dp103
g5
g41
sg7
S'18.0.0.12'
p104
sg9
g10
ssS'd81'
p105
(dp106
g5
g37
sg7
S'18.0.0.11'
p107
sg9
g10
ssS'd90'
p108
(dp109
g5
g6
sg7
S'18.0.0.20'
p110
sg9
g10
sssS'cluster2'
p111
(dp112
S'd14'
p113
(dp114
g5
g21
sg7
S'11.0.0.14'
p115
sg9
g10
ssS'd15'
p116
(dp117
g5
g25
sg7
S'11.0.0.15'
p118
sg9
g10
ssS'd16'
p119
(dp120
g5
g29
sg7
S'11.0.0.16'
p121
sg9
g10
ssS'd17'
p122
(dp123
g5
g33
sg7
S'11.0.0.17'
p124
sg9
g10
ssS'd11'
p125
(dp126
g5
g37
sg7
S'11.0.0.11'
p127
sg9
g10
ssS'd12'
p128
(dp129
g5
g41
sg7
S'11.0.0.12'
p130
sg9
g10
ssS'd13'
p131
(dp132
g5
g45
sg7
S'11.0.0.13'
p133
sg9
g10
ssS'd20'
p134
(dp135
g5
g6
sg7
S'11.0.0.20'
p136
sg9
g10
ssS'd18'
p137
(dp138
g5
g13
sg7
S'11.0.0.18'
p139
sg9
g10
ssS'd19'
p140
(dp141
g5
g17
sg7
S'11.0.0.19'
p142
sg9
g10
sssS'cluster3'
p143
(dp144
S'd29'
p145
(dp146
g5
g17
sg7
S'12.0.0.19'
p147
sg9
g10
ssS'd28'
p148
(dp149
g5
g13
sg7
S'12.0.0.18'
p150
sg9
g10
ssS'd21'
p151
(dp152
g5
g37
sg7
S'12.0.0.11'
p153
sg9
g10
ssS'd23'
p154
(dp155
g5
g45
sg7
S'12.0.0.13'
p156
sg9
g10
ssS'd22'
p157
(dp158
g5
g41
sg7
S'12.0.0.12'
p159
sg9
g10
ssS'd25'
p160
(dp161
g5
g25
sg7
S'12.0.0.15'
p162
sg9
g10
ssS'd24'
p163
(dp164
g5
g21
sg7
S'12.0.0.14'
p165
sg9
g10
ssS'd27'
p166
(dp167
g5
g33
sg7
S'12.0.0.17'
p168
sg9
g10
ssS'd26'
p169
(dp170
g5
g29
sg7
S'12.0.0.16'
p171
sg9
g10
ssS'd30'
p172
(dp173
g5
g6
sg7
S'12.0.0.20'
p174
sg9
g10
sssS'cluster1'
p175
(dp176
S'd10'
p177
(dp178
g5
g6
sg7
S'10.0.0.20'
p179
sg9
g10
ssS'd8'
p180
(dp181
g5
g13
sg7
S'10.0.0.18'
p182
sg9
g10
ssS'd9'
p183
(dp184
g5
g17
sg7
S'10.0.0.19'
p185
sg9
g10
ssS'd6'
p186
(dp187
g5
g29
sg7
S'10.0.0.16'
p188
sg9
g10
ssS'd7'
p189
(dp190
g5
g33
sg7
S'10.0.0.17'
p191
sg9
g10
ssS'd4'
p192
(dp193
g5
g21
sg7
S'10.0.0.14'
p194
sg9
g10
ssS'd5'
p195
(dp196
g5
g25
sg7
S'10.0.0.15'
p197
sg9
g10
ssS'd2'
p198
(dp199
g5
g41
sg7
S'10.0.0.12'
p200
sg9
g10
ssS'd3'
p201
(dp202
g5
g45
sg7
S'10.0.0.13'
p203
sg9
g10
ssS'd1'
p204
(dp205
g5
g37
sg7
S'10.0.0.11'
p206
sg9
g10
sssS'cluster6'
p207
(dp208
S'd60'
p209
(dp210
g5
g6
sg7
S'15.0.0.20'
p211
sg9
g10
ssS'd58'
p212
(dp213
g5
g13
sg7
S'15.0.0.18'
p214
sg9
g10
ssS'd59'
p215
(dp216
g5
g17
sg7
S'15.0.0.19'
p217
sg9
g10
ssS'd51'
p218
(dp219
g5
g37
sg7
S'15.0.0.11'
p220
sg9
g10
ssS'd52'
p221
(dp222
g5
g41
sg7
S'15.0.0.12'
p223
sg9
g10
ssS'd53'
p224
(dp225
g5
g45
sg7
S'15.0.0.13'
p226
sg9
g10
ssS'd54'
p227
(dp228
g5
g21
sg7
S'15.0.0.14'
p229
sg9
g10
ssS'd55'
p230
(dp231
g5
g25
sg7
S'15.0.0.15'
p232
sg9
g10
ssS'd56'
p233
(dp234
g5
g29
sg7
S'15.0.0.16'
p235
sg9
g10
ssS'd57'
p236
(dp237
g5
g33
sg7
S'15.0.0.17'
p238
sg9
g10
sssS'cluster7'
p239
(dp240
S'd70'
p241
(dp242
g5
g6
sg7
S'16.0.0.20'
p243
sg9
g10
ssS'd69'
p244
(dp245
g5
g17
sg7
S'16.0.0.19'
p246
sg9
g10
ssS'd68'
p247
(dp248
g5
g13
sg7
S'16.0.0.18'
p249
sg9
g10
ssS'd65'
p250
(dp251
g5
g25
sg7
S'16.0.0.15'
p252
sg9
g10
ssS'd64'
p253
(dp254
g5
g21
sg7
S'16.0.0.14'
p255
sg9
g10
ssS'd67'
p256
(dp257
g5
g33
sg7
S'16.0.0.17'
p258
sg9
g10
ssS'd66'
p259
(dp260
g5
g29
sg7
S'16.0.0.16'
p261
sg9
g10
ssS'd61'
p262
(dp263
g5
g37
sg7
S'16.0.0.11'
p264
sg9
g10
ssS'd63'
p265
(dp266
g5
g45
sg7
S'16.0.0.13'
p267
sg9
g10
ssS'd62'
p268
(dp269
g5
g41
sg7
S'16.0.0.12'
p270
sg9
g10
sssS'cluster4'
p271
(dp272
S'd38'
p273
(dp274
g5
g13
sg7
S'13.0.0.18'
p275
sg9
g10
ssS'd39'
p276
(dp277
g5
g17
sg7
S'13.0.0.19'
p278
sg9
g10
ssS'd36'
p279
(dp280
g5
g29
sg7
S'13.0.0.16'
p281
sg9
g10
ssS'd37'
p282
(dp283
g5
g33
sg7
S'13.0.0.17'
p284
sg9
g10
ssS'd34'
p285
(dp286
g5
g21
sg7
S'13.0.0.14'
p287
sg9
g10
ssS'd35'
p288
(dp289
g5
g25
sg7
S'13.0.0.15'
p290
sg9
g10
ssS'd32'
p291
(dp292
g5
g41
sg7
S'13.0.0.12'
p293
sg9
g10
ssS'd33'
p294
(dp295
g5
g45
sg7
S'13.0.0.13'
p296
sg9
g10
ssS'd31'
p297
(dp298
g5
g37
sg7
S'13.0.0.11'
p299
sg9
g10
ssS'd40'
p300
(dp301
g5
g6
sg7
S'13.0.0.20'
p302
sg9
g10
sssS'cluster5'
p303
(dp304
S'd50'
p305
(dp306
g5
g6
sg7
S'14.0.0.20'
p307
sg9
g10
ssS'd49'
p308
(dp309
g5
g17
sg7
S'14.0.0.19'
p310
sg9
g10
ssS'd48'
p311
(dp312
g5
g13
sg7
S'14.0.0.18'
p313
sg9
g10
ssS'd43'
p314
(dp315
g5
g45
sg7
S'14.0.0.13'
p316
sg9
g10
ssS'd42'
p317
(dp318
g5
g41
sg7
S'14.0.0.12'
p319
sg9
g10
ssS'd41'
p320
(dp321
g5
g37
sg7
S'14.0.0.11'
p322
sg9
g10
ssS'd47'
p323
(dp324
g5
g33
sg7
S'14.0.0.17'
p325
sg9
g10
ssS'd46'
p326
(dp327
g5
g29
sg7
S'14.0.0.16'
p328
sg9
g10
ssS'd45'
p329
(dp330
g5
g25
sg7
S'14.0.0.15'
p331
sg9
g10
ssS'd44'
p332
(dp333
g5
g21
sg7
S'14.0.0.14'
p334
sg9
g10
sss.